; Function Attrs: mustprogress uwtable
define void @_ZN7Imf_3_211StdOFStreamC2ERSt14basic_ofstreamIcSt11char_traitsIcEEPKc(ptr noundef nonnull align 8 dereferenceable(49) %this, ptr noundef nonnull align 8 dereferenceable(248) %os, ptr noundef %fileName) unnamed_addr #3 align 2 {
entry:
  tail call void @_ZN7Imf_3_27OStreamC2EPKc(ptr noundef nonnull align 8 dereferenceable(40) %this, ptr noundef %fileName)
  store ptr getelementptr inbounds ({ [7 x ptr] }, ptr @_ZTVN7Imf_3_211StdOFStreamE, i64 0, i32 0, i64 2), ptr %this, align 8
  %_os = getelementptr inbounds i8, ptr %this, i64 40
  store ptr %os, ptr %_os, align 8
  %_deleteStream = getelementptr inbounds i8, ptr %this, i64 48
  store i8 0, ptr %_deleteStream, align 8
  ret void
}